; Function Attrs: mustprogress nofree norecurse nosync nounwind willreturn memory(argmem: read) uwtable
define range(i32 0, 2) i32 @tls_processed_read_pending(ptr noundef readonly captures(none) %0) #9 {
  %2 = getelementptr inbounds nuw i8, ptr %0, i64 4056
  %3 = load i64, ptr %2, align 8, !tbaa !95
  %4 = getelementptr inbounds nuw i8, ptr %0, i64 4048
  %5 = load i64, ptr %4, align 8, !tbaa !88
  %6 = icmp ult i64 %3, %5
  %7 = zext i1 %6 to i32
  ret i32 %7
}